target datalayout = "e-m:e-p270:32:32-p271:32:32-p272:64:64-i64:64-i128:128-f80:128-n8:16:32:64-S128"
target triple = "x86_64-pc-linux-gnu"

%struct._object = type { %union.anon, ptr }
%union.anon = type { i64 }
%struct.instruction_sequence = type { %struct._object, ptr, i32, i32, i32, ptr, i32, ptr }

@_Py_NoneStruct = external global %struct._object, align 8
@PyExc_TypeError = external global ptr, align 8
@.str.16 = private unnamed_addr constant [41 x i8] c"expected an instruction sequence, not %T\00", align 1

; Function Attrs: nounwind uwtable
define hidden i32 @_PyInstructionSequence_AddNested(ptr noundef %0, ptr noundef %1) #0 {
  %3 = alloca i32, align 4
  %4 = alloca ptr, align 8
  %5 = alloca ptr, align 8
  store ptr %0, ptr %4, align 8, !tbaa !4
  store ptr %1, ptr %5, align 8, !tbaa !4
  %6 = load ptr, ptr %4, align 8, !tbaa !4
  %7 = getelementptr inbounds nuw %struct.instruction_sequence, ptr %6, i32 0, i32 7
  %8 = load ptr, ptr %7, align 8, !tbaa !40
  %9 = icmp eq ptr %8, null
  br i1 %9, label %10, label %20

10:                                               ; preds = %2
  %11 = call ptr @PyList_New(i64 noundef 0)
  %12 = load ptr, ptr %4, align 8, !tbaa !4
  %13 = getelementptr inbounds nuw %struct.instruction_sequence, ptr %12, i32 0, i32 7
  store ptr %11, ptr %13, align 8, !tbaa !40
  %14 = load ptr, ptr %4, align 8, !tbaa !4
  %15 = getelementptr inbounds nuw %struct.instruction_sequence, ptr %14, i32 0, i32 7
  %16 = load ptr, ptr %15, align 8, !tbaa !40
  %17 = icmp eq ptr %16, null
  br i1 %17, label %18, label %19

18:                                               ; preds = %10
  store i32 -1, ptr %3, align 4
  br label %29

19:                                               ; preds = %10
  br label %20

20:                                               ; preds = %19, %2
  %21 = load ptr, ptr %4, align 8, !tbaa !4
  %22 = getelementptr inbounds nuw %struct.instruction_sequence, ptr %21, i32 0, i32 7
  %23 = load ptr, ptr %22, align 8, !tbaa !40
  %24 = load ptr, ptr %5, align 8, !tbaa !4
  %25 = call i32 @PyList_Append(ptr noundef %23, ptr noundef %24)
  %26 = icmp slt i32 %25, 0
  br i1 %26, label %27, label %28

27:                                               ; preds = %20
  store i32 -1, ptr %3, align 4
  br label %29

28:                                               ; preds = %20
  store i32 0, ptr %3, align 4
  br label %29

29:                                               ; preds = %28, %27, %18
  %30 = load i32, ptr %3, align 4
  ret i32 %30
}

; Function Attrs: inlinehint nounwind uwtable
define internal ptr @_Py_TYPE(ptr noundef %0) #4 {
  %2 = alloca ptr, align 8
  store ptr %0, ptr %2, align 8, !tbaa !41
  %3 = load ptr, ptr %2, align 8, !tbaa !41
  %4 = getelementptr inbounds nuw %struct._object, ptr %3, i32 0, i32 1
  %5 = load ptr, ptr %4, align 8, !tbaa !67
  ret ptr %5
}

; Function Attrs: inlinehint nounwind uwtable
define internal i32 @Py_IS_TYPE(ptr noundef %0, ptr noundef %1) #4 {
  %3 = alloca ptr, align 8
  %4 = alloca ptr, align 8
  store ptr %0, ptr %3, align 8, !tbaa !41
  store ptr %1, ptr %4, align 8, !tbaa !64
  %5 = load ptr, ptr %3, align 8, !tbaa !41
  %6 = call ptr @_Py_TYPE(ptr noundef %5)
  %7 = load ptr, ptr %4, align 8, !tbaa !64
  %8 = icmp eq ptr %6, %7
  %9 = zext i1 %8 to i32
  ret i32 %9
}

; Function Attrs: nounwind uwtable
define internal ptr @InstructionSequenceType_add_nested_impl(ptr noundef %0, ptr noundef %1) #0 {
  %3 = alloca ptr, align 8
  %4 = alloca ptr, align 8
  %5 = alloca ptr, align 8
  store ptr %0, ptr %4, align 8, !tbaa !4
  store ptr %1, ptr %5, align 8, !tbaa !41
  %6 = load ptr, ptr %5, align 8, !tbaa !41
  %7 = call i32 @Py_IS_TYPE(ptr noundef %6, ptr noundef @_PyInstructionSequence_Type)
  %8 = icmp ne i32 %7, 0
  br i1 %8, label %14, label %9

9:                                                ; preds = %2
  %10 = load ptr, ptr @PyExc_TypeError, align 8, !tbaa !41
  %11 = load ptr, ptr %5, align 8, !tbaa !41
  %12 = call ptr @_Py_TYPE(ptr noundef %11)
  %13 = call ptr (ptr, ptr, ...) @PyErr_Format(ptr noundef %10, ptr noundef @.str.16, ptr noundef %12)
  store ptr null, ptr %3, align 8
  br label %21

14:                                               ; preds = %2
  %15 = load ptr, ptr %4, align 8, !tbaa !4
  %16 = load ptr, ptr %5, align 8, !tbaa !41
  %17 = call i32 @_PyInstructionSequence_AddNested(ptr noundef %15, ptr noundef %16)
  %18 = icmp slt i32 %17, 0
  br i1 %18, label %19, label %20

19:                                               ; preds = %14
  store ptr null, ptr %3, align 8
  br label %21

20:                                               ; preds = %14
  store ptr @_Py_NoneStruct, ptr %3, align 8
  br label %21

21:                                               ; preds = %20, %19, %9
  %22 = load ptr, ptr %3, align 8
  ret ptr %22
}

; Function Attrs: nounwind uwtable
define internal ptr @InstructionSequenceType_add_nested(ptr noundef %0, ptr noundef %1, i64 noundef %2, ptr noundef %3) #0 {
  %5 = alloca ptr, align 8
  %6 = alloca ptr, align 8
  %7 = alloca i64, align 8
  %8 = alloca ptr, align 8
  %9 = alloca ptr, align 8
  %10 = alloca [1 x ptr], align 8
  %11 = alloca ptr, align 8
  store ptr %0, ptr %5, align 8, !tbaa !41
  store ptr %1, ptr %6, align 8, !tbaa !63
  store i64 %2, ptr %7, align 8, !tbaa !68
  store ptr %3, ptr %8, align 8, !tbaa !41
  call void @llvm.lifetime.start.p0(i64 8, ptr %9) #6
  store ptr null, ptr %9, align 8, !tbaa !41
  call void @llvm.lifetime.start.p0(i64 8, ptr %10) #6
  call void @llvm.lifetime.start.p0(i64 8, ptr %11) #6
  %12 = load ptr, ptr %8, align 8, !tbaa !41
  %13 = icmp eq ptr %12, null
  br i1 %13, label %14, label %25

14:                                               ; preds = %4
  %15 = load i64, ptr %7, align 8, !tbaa !68
  %16 = icmp sle i64 1, %15
  br i1 %16, label %17, label %25

17:                                               ; preds = %14
  %18 = load i64, ptr %7, align 8, !tbaa !68
  %19 = icmp sle i64 %18, 1
  br i1 %19, label %20, label %25

20:                                               ; preds = %17
  %21 = load ptr, ptr %6, align 8, !tbaa !63
  %22 = icmp ne ptr %21, null
  br i1 %22, label %23, label %25

23:                                               ; preds = %20
  %24 = load ptr, ptr %6, align 8, !tbaa !63
  br label %31

25:                                               ; preds = %20, %17, %14, %4
  %26 = load ptr, ptr %6, align 8, !tbaa !63
  %27 = load i64, ptr %7, align 8, !tbaa !68
  %28 = load ptr, ptr %8, align 8, !tbaa !41
  %29 = getelementptr inbounds [1 x ptr], ptr %10, i64 0, i64 0
  %30 = call ptr @_PyArg_UnpackKeywords(ptr noundef %26, i64 noundef %27, ptr noundef null, ptr noundef %28, ptr noundef @InstructionSequenceType_add_nested._parser, i32 noundef 1, i32 noundef 1, i32 noundef 0, i32 noundef 0, ptr noundef %29)
  br label %31

31:                                               ; preds = %25, %23
  %32 = phi ptr [ %24, %23 ], [ %30, %25 ]
  store ptr %32, ptr %6, align 8, !tbaa !63
  %33 = load ptr, ptr %6, align 8, !tbaa !63
  %34 = icmp ne ptr %33, null
  br i1 %34, label %36, label %35

35:                                               ; preds = %31
  br label %43

36:                                               ; preds = %31
  %37 = load ptr, ptr %6, align 8, !tbaa !63
  %38 = getelementptr ptr, ptr %37, i64 0
  %39 = load ptr, ptr %38, align 8, !tbaa !41
  store ptr %39, ptr %11, align 8, !tbaa !41
  %40 = load ptr, ptr %5, align 8, !tbaa !41
  %41 = load ptr, ptr %11, align 8, !tbaa !41
  %42 = call ptr @InstructionSequenceType_add_nested_impl(ptr noundef %40, ptr noundef %41)
  store ptr %42, ptr %9, align 8, !tbaa !41
  br label %43

43:                                               ; preds = %36, %35
  %44 = load ptr, ptr %9, align 8, !tbaa !41
  call void @llvm.lifetime.end.p0(i64 8, ptr %11) #6
  call void @llvm.lifetime.end.p0(i64 8, ptr %10) #6
  call void @llvm.lifetime.end.p0(i64 8, ptr %9) #6
  ret ptr %44
}