; Function Attrs: nounwind uwtable
define internal noundef ptr @InstructionSequenceType_add_nested(ptr noundef captures(none) %0, ptr noundef %1, i64 noundef %2, ptr noundef %3) #1 {
  %5 = alloca [1 x ptr], align 8
  call void @llvm.lifetime.start.p0(i64 8, ptr nonnull %5) #6
  %6 = icmp eq ptr %3, null
  %7 = icmp eq i64 %2, 1
  %or.cond3 = and i1 %7, %6
  %8 = icmp ne ptr %1, null
  %or.cond5 = and i1 %8, %or.cond3
  br i1 %or.cond5, label %.thread, label %9

9:                                                ; preds = %4
  %10 = call ptr @_PyArg_UnpackKeywords(ptr noundef %1, i64 noundef %2, ptr noundef null, ptr noundef %3, ptr noundef nonnull @InstructionSequenceType_add_nested._parser, i32 noundef 1, i32 noundef 1, i32 noundef 0, i32 noundef 0, ptr noundef nonnull %5) #6
  %.not = icmp eq ptr %10, null
  br i1 %.not, label %InstructionSequenceType_add_nested_impl.exit, label %.thread

.thread:                                          ; preds = %4, %9
  %11 = phi ptr [ %10, %9 ], [ %1, %4 ]
  %12 = load ptr, ptr %11, align 8, !tbaa !56
  %13 = getelementptr i8, ptr %12, i64 8
  %.val5.i = load ptr, ptr %13, align 8, !tbaa !47
  %.not.i = icmp eq ptr %.val5.i, @_PyInstructionSequence_Type
  br i1 %.not.i, label %17, label %14

14:                                               ; preds = %.thread
  %15 = load ptr, ptr @PyExc_TypeError, align 8, !tbaa !56
  %16 = call ptr (ptr, ptr, ...) @PyErr_Format(ptr noundef %15, ptr noundef nonnull @.str.16, ptr noundef %.val5.i) #6
  br label %InstructionSequenceType_add_nested_impl.exit

17:                                               ; preds = %.thread
  %18 = getelementptr inbounds nuw i8, ptr %0, i64 56
  %19 = load ptr, ptr %18, align 8, !tbaa !34
  %20 = icmp eq ptr %19, null
  br i1 %20, label %21, label %_PyInstructionSequence_AddNested.exit.i

21:                                               ; preds = %17
  %22 = call ptr @PyList_New(i64 noundef 0) #6
  store ptr %22, ptr %18, align 8, !tbaa !34
  %23 = icmp eq ptr %22, null
  br i1 %23, label %_PyInstructionSequence_AddNested.exit.thread.i, label %_PyInstructionSequence_AddNested.exit.i

_PyInstructionSequence_AddNested.exit.i:          ; preds = %21, %17
  %24 = phi ptr [ %22, %21 ], [ %19, %17 ]
  %25 = call i32 @PyList_Append(ptr noundef nonnull %24, ptr noundef nonnull %12) #6
  %.fr.i = freeze i32 %25
  %26 = icmp slt i32 %.fr.i, 0
  br i1 %26, label %_PyInstructionSequence_AddNested.exit.thread.i, label %InstructionSequenceType_add_nested_impl.exit

_PyInstructionSequence_AddNested.exit.thread.i:   ; preds = %_PyInstructionSequence_AddNested.exit.i, %21
  br label %InstructionSequenceType_add_nested_impl.exit

InstructionSequenceType_add_nested_impl.exit:     ; preds = %_PyInstructionSequence_AddNested.exit.thread.i, %_PyInstructionSequence_AddNested.exit.i, %14, %9
  %.0 = phi ptr [ null, %9 ], [ null, %14 ], [ null, %_PyInstructionSequence_AddNested.exit.thread.i ], [ @_Py_NoneStruct, %_PyInstructionSequence_AddNested.exit.i ]
  call void @llvm.lifetime.end.p0(i64 8, ptr nonnull %5) #6
  ret ptr %.0
}